target datalayout = "e-m:e-p270:32:32-p271:32:32-p272:64:64-i64:64-i128:128-f80:128-n8:16:32:64-S128"
target triple = "x86_64-pc-linux-gnu"

%struct._object = type { %union.anon, ptr }
%union.anon = type { i64 }
%struct.readlinestate = type { ptr, ptr, ptr, ptr, ptr, ptr }
%struct.anon = type { i32, i32 }

@rl_line_buffer = external global ptr, align 8
@rl_completion_append_character = external global i32, align 4
@rl_completion_suppress_append = external global i32, align 4

; Function Attrs: alwaysinline nounwind uwtable
define internal i32 @_Py_IsImmortal(ptr noundef %0) #4 {
  %2 = alloca ptr, align 8
  store ptr %0, ptr %2, align 8, !tbaa !19
  %3 = load ptr, ptr %2, align 8, !tbaa !19
  %4 = getelementptr inbounds nuw %struct._object, ptr %3, i32 0, i32 0
  %5 = getelementptr inbounds nuw %struct.anon, ptr %4, i32 0, i32 0
  %6 = load i32, ptr %5, align 8, !tbaa !23
  %7 = icmp slt i32 %6, 0
  %8 = zext i1 %7 to i32
  ret i32 %8
}

; Function Attrs: alwaysinline nounwind uwtable
define internal void @Py_DECREF(ptr noundef %0) #4 {
  %2 = alloca ptr, align 8
  store ptr %0, ptr %2, align 8, !tbaa !19
  %3 = load ptr, ptr %2, align 8, !tbaa !19
  %4 = call i32 @_Py_IsImmortal(ptr noundef %3)
  %5 = icmp ne i32 %4, 0
  br i1 %5, label %6, label %7

6:                                                ; preds = %1
  br label %16

7:                                                ; preds = %1
  %8 = load ptr, ptr %2, align 8, !tbaa !19
  %9 = getelementptr inbounds nuw %struct._object, ptr %8, i32 0, i32 0
  %10 = getelementptr inbounds nuw %struct.anon, ptr %9, i32 0, i32 0
  %11 = load i32, ptr %10, align 8, !tbaa !23
  %12 = add i32 %11, -1
  store i32 %12, ptr %10, align 8, !tbaa !23
  %13 = icmp eq i32 %12, 0
  br i1 %13, label %14, label %16

14:                                               ; preds = %7
  %15 = load ptr, ptr %2, align 8, !tbaa !19
  call void @_Py_Dealloc(ptr noundef %15)
  br label %16

16:                                               ; preds = %6, %14, %7
  ret void
}

; Function Attrs: inlinehint nounwind uwtable
define internal ptr @get_readline_state(ptr noundef %0) #5 {
  %2 = alloca ptr, align 8
  %3 = alloca ptr, align 8
  store ptr %0, ptr %2, align 8, !tbaa !19
  call void @llvm.lifetime.start.p0(i64 8, ptr %3) #10
  %4 = load ptr, ptr %2, align 8, !tbaa !19
  %5 = call ptr @PyModule_GetState(ptr noundef %4)
  store ptr %5, ptr %3, align 8, !tbaa !20
  %6 = load ptr, ptr %3, align 8, !tbaa !20
  call void @llvm.lifetime.end.p0(i64 8, ptr %3) #10
  ret ptr %6
}

; Function Attrs: alwaysinline nounwind uwtable
define internal void @Py_INCREF(ptr noundef %0) #4 {
  %2 = alloca ptr, align 8
  %3 = alloca i32, align 4
  %4 = alloca i32, align 4
  store ptr %0, ptr %2, align 8, !tbaa !19
  call void @llvm.lifetime.start.p0(i64 4, ptr %3) #10
  %5 = load ptr, ptr %2, align 8, !tbaa !19
  %6 = getelementptr inbounds nuw %struct._object, ptr %5, i32 0, i32 0
  %7 = getelementptr inbounds nuw %struct.anon, ptr %6, i32 0, i32 0
  %8 = load i32, ptr %7, align 8, !tbaa !23
  store i32 %8, ptr %3, align 4, !tbaa !8
  %9 = load i32, ptr %3, align 4, !tbaa !8
  %10 = icmp slt i32 %9, 0
  br i1 %10, label %11, label %12

11:                                               ; preds = %1
  store i32 1, ptr %4, align 4
  br label %18

12:                                               ; preds = %1
  %13 = load i32, ptr %3, align 4, !tbaa !8
  %14 = add i32 %13, 1
  %15 = load ptr, ptr %2, align 8, !tbaa !19
  %16 = getelementptr inbounds nuw %struct._object, ptr %15, i32 0, i32 0
  %17 = getelementptr inbounds nuw %struct.anon, ptr %16, i32 0, i32 0
  store i32 %14, ptr %17, align 8, !tbaa !23
  store i32 0, ptr %4, align 4
  br label %18

18:                                               ; preds = %12, %11
  call void @llvm.lifetime.end.p0(i64 4, ptr %3) #10
  %19 = load i32, ptr %4, align 4
  switch i32 %19, label %21 [
    i32 0, label %20
    i32 1, label %20
  ]

20:                                               ; preds = %18, %18
  ret void

21:                                               ; preds = %18
  unreachable
}

; Function Attrs: inlinehint nounwind uwtable
define internal void @Py_XDECREF(ptr noundef %0) #5 {
  %2 = alloca ptr, align 8
  store ptr %0, ptr %2, align 8, !tbaa !19
  %3 = load ptr, ptr %2, align 8, !tbaa !19
  %4 = icmp ne ptr %3, null
  br i1 %4, label %5, label %7

5:                                                ; preds = %1
  %6 = load ptr, ptr %2, align 8, !tbaa !19
  call void @Py_DECREF(ptr noundef %6)
  br label %7

7:                                                ; preds = %5, %1
  ret void
}

; Function Attrs: inlinehint nounwind uwtable
define internal ptr @get_hook_module_state() #5 {
  %1 = alloca ptr, align 8
  %2 = alloca ptr, align 8
  %3 = alloca i32, align 4
  %4 = alloca ptr, align 8
  call void @llvm.lifetime.start.p0(i64 8, ptr %2) #10
  %5 = call ptr @PyState_FindModule(ptr noundef @readlinemodule)
  store ptr %5, ptr %2, align 8, !tbaa !19
  %6 = load ptr, ptr %2, align 8, !tbaa !19
  %7 = icmp eq ptr %6, null
  br i1 %7, label %8, label %9

8:                                                ; preds = %0
  call void @PyErr_Clear()
  store ptr null, ptr %1, align 8
  store i32 1, ptr %3, align 4
  br label %15

9:                                                ; preds = %0
  %10 = load ptr, ptr %2, align 8, !tbaa !19
  call void @Py_INCREF(ptr noundef %10)
  call void @llvm.lifetime.start.p0(i64 8, ptr %4) #10
  %11 = load ptr, ptr %2, align 8, !tbaa !19
  %12 = call ptr @get_readline_state(ptr noundef %11)
  store ptr %12, ptr %4, align 8, !tbaa !20
  %13 = load ptr, ptr %2, align 8, !tbaa !19
  call void @Py_DECREF(ptr noundef %13)
  %14 = load ptr, ptr %4, align 8, !tbaa !20
  store ptr %14, ptr %1, align 8
  store i32 1, ptr %3, align 4
  call void @llvm.lifetime.end.p0(i64 8, ptr %4) #10
  br label %15

15:                                               ; preds = %9, %8
  call void @llvm.lifetime.end.p0(i64 8, ptr %2) #10
  %16 = load ptr, ptr %1, align 8
  ret ptr %16
}

; Function Attrs: nounwind uwtable
define internal ptr @flex_complete(ptr noundef %0, i32 noundef %1, i32 noundef %2) #0 {
  %4 = alloca ptr, align 8
  %5 = alloca i32, align 4
  %6 = alloca i32, align 4
  %7 = alloca ptr, align 8
  %8 = alloca i8, align 1
  %9 = alloca i64, align 8
  %10 = alloca i64, align 8
  %11 = alloca ptr, align 8
  %12 = alloca i32, align 4
  %13 = alloca ptr, align 8
  store ptr %0, ptr %4, align 8, !tbaa !3
  store i32 %1, ptr %5, align 4, !tbaa !8
  store i32 %2, ptr %6, align 4, !tbaa !8
  call void @llvm.lifetime.start.p0(i64 8, ptr %7) #10
  call void @llvm.lifetime.start.p0(i64 1, ptr %8) #10
  call void @llvm.lifetime.start.p0(i64 8, ptr %9) #10
  call void @llvm.lifetime.start.p0(i64 8, ptr %10) #10
  call void @llvm.lifetime.start.p0(i64 8, ptr %11) #10
  call void @llvm.lifetime.start.p0(i64 4, ptr %12) #10
  %14 = call i32 @PyGILState_Ensure()
  store i32 %14, ptr %12, align 4, !tbaa !8
  call void @llvm.lifetime.start.p0(i64 8, ptr %13) #10
  %15 = call ptr @get_hook_module_state()
  store ptr %15, ptr %13, align 8, !tbaa !20
  store i32 0, ptr @rl_completion_append_character, align 4, !tbaa !8
  store i32 0, ptr @rl_completion_suppress_append, align 4, !tbaa !8
  %16 = load ptr, ptr @rl_line_buffer, align 8, !tbaa !3
  %17 = load i32, ptr %5, align 4, !tbaa !8
  %18 = sext i32 %17 to i64
  %19 = getelementptr i8, ptr %16, i64 %18
  %20 = load i8, ptr %19, align 1, !tbaa !23
  store i8 %20, ptr %8, align 1, !tbaa !23
  %21 = load ptr, ptr @rl_line_buffer, align 8, !tbaa !3
  %22 = load i32, ptr %5, align 4, !tbaa !8
  %23 = sext i32 %22 to i64
  %24 = getelementptr i8, ptr %21, i64 %23
  store i8 0, ptr %24, align 1, !tbaa !23
  %25 = load ptr, ptr @rl_line_buffer, align 8, !tbaa !3
  %26 = call ptr @Py_DecodeLocale(ptr noundef %25, ptr noundef %9)
  store ptr %26, ptr %11, align 8, !tbaa !58
  %27 = load i8, ptr %8, align 1, !tbaa !23
  %28 = load ptr, ptr @rl_line_buffer, align 8, !tbaa !3
  %29 = load i32, ptr %5, align 4, !tbaa !8
  %30 = sext i32 %29 to i64
  %31 = getelementptr i8, ptr %28, i64 %30
  store i8 %27, ptr %31, align 1, !tbaa !23
  %32 = load ptr, ptr %11, align 8, !tbaa !58
  %33 = icmp eq ptr %32, null
  br i1 %33, label %34, label %35

34:                                               ; preds = %3
  br label %67

35:                                               ; preds = %3
  %36 = load ptr, ptr %11, align 8, !tbaa !58
  call void @PyMem_RawFree(ptr noundef %36)
  %37 = load ptr, ptr @rl_line_buffer, align 8, !tbaa !3
  %38 = load i32, ptr %6, align 4, !tbaa !8
  %39 = sext i32 %38 to i64
  %40 = getelementptr i8, ptr %37, i64 %39
  %41 = load i8, ptr %40, align 1, !tbaa !23
  store i8 %41, ptr %8, align 1, !tbaa !23
  %42 = load ptr, ptr @rl_line_buffer, align 8, !tbaa !3
  %43 = load i32, ptr %6, align 4, !tbaa !8
  %44 = sext i32 %43 to i64
  %45 = getelementptr i8, ptr %42, i64 %44
  store i8 0, ptr %45, align 1, !tbaa !23
  %46 = load ptr, ptr @rl_line_buffer, align 8, !tbaa !3
  %47 = load i32, ptr %5, align 4, !tbaa !8
  %48 = sext i32 %47 to i64
  %49 = getelementptr i8, ptr %46, i64 %48
  %50 = call ptr @Py_DecodeLocale(ptr noundef %49, ptr noundef %10)
  store ptr %50, ptr %11, align 8, !tbaa !58
  %51 = load i8, ptr %8, align 1, !tbaa !23
  %52 = load ptr, ptr @rl_line_buffer, align 8, !tbaa !3
  %53 = load i32, ptr %6, align 4, !tbaa !8
  %54 = sext i32 %53 to i64
  %55 = getelementptr i8, ptr %52, i64 %54
  store i8 %51, ptr %55, align 1, !tbaa !23
  %56 = load ptr, ptr %11, align 8, !tbaa !58
  %57 = icmp eq ptr %56, null
  br i1 %57, label %58, label %59

58:                                               ; preds = %35
  br label %67

59:                                               ; preds = %35
  %60 = load ptr, ptr %11, align 8, !tbaa !58
  call void @PyMem_RawFree(ptr noundef %60)
  %61 = load i64, ptr %9, align 8, !tbaa !24
  %62 = trunc i64 %61 to i32
  store i32 %62, ptr %5, align 4, !tbaa !8
  %63 = load i32, ptr %5, align 4, !tbaa !8
  %64 = load i64, ptr %10, align 8, !tbaa !24
  %65 = trunc i64 %64 to i32
  %66 = add i32 %63, %65
  store i32 %66, ptr %6, align 4, !tbaa !8
  br label %67

67:                                               ; preds = %59, %58, %34
  %68 = load ptr, ptr %13, align 8, !tbaa !20
  %69 = icmp ne ptr %68, null
  br i1 %69, label %70, label %87

70:                                               ; preds = %67
  %71 = load ptr, ptr %13, align 8, !tbaa !20
  %72 = getelementptr inbounds nuw %struct.readlinestate, ptr %71, i32 0, i32 4
  %73 = load ptr, ptr %72, align 8, !tbaa !29
  call void @Py_XDECREF(ptr noundef %73)
  %74 = load ptr, ptr %13, align 8, !tbaa !20
  %75 = getelementptr inbounds nuw %struct.readlinestate, ptr %74, i32 0, i32 5
  %76 = load ptr, ptr %75, align 8, !tbaa !31
  call void @Py_XDECREF(ptr noundef %76)
  %77 = load i32, ptr %5, align 4, !tbaa !8
  %78 = sext i32 %77 to i64
  %79 = call ptr @PyLong_FromLong(i64 noundef %78)
  %80 = load ptr, ptr %13, align 8, !tbaa !20
  %81 = getelementptr inbounds nuw %struct.readlinestate, ptr %80, i32 0, i32 4
  store ptr %79, ptr %81, align 8, !tbaa !29
  %82 = load i32, ptr %6, align 4, !tbaa !8
  %83 = sext i32 %82 to i64
  %84 = call ptr @PyLong_FromLong(i64 noundef %83)
  %85 = load ptr, ptr %13, align 8, !tbaa !20
  %86 = getelementptr inbounds nuw %struct.readlinestate, ptr %85, i32 0, i32 5
  store ptr %84, ptr %86, align 8, !tbaa !31
  br label %87

87:                                               ; preds = %70, %67
  %88 = load ptr, ptr %4, align 8, !tbaa !3
  %89 = call ptr @rl_completion_matches(ptr noundef %88, ptr noundef @on_completion)
  store ptr %89, ptr %7, align 8, !tbaa !52
  %90 = load i32, ptr %12, align 4, !tbaa !8
  call void @PyGILState_Release(i32 noundef %90)
  %91 = load ptr, ptr %7, align 8, !tbaa !52
  call void @llvm.lifetime.end.p0(i64 8, ptr %13) #10
  call void @llvm.lifetime.end.p0(i64 4, ptr %12) #10
  call void @llvm.lifetime.end.p0(i64 8, ptr %11) #10
  call void @llvm.lifetime.end.p0(i64 8, ptr %10) #10
  call void @llvm.lifetime.end.p0(i64 8, ptr %9) #10
  call void @llvm.lifetime.end.p0(i64 1, ptr %8) #10
  call void @llvm.lifetime.end.p0(i64 8, ptr %7) #10
  ret ptr %91
}