; Function Attrs: nounwind uwtable
define internal ptr @flex_complete(ptr noundef %0, i32 noundef %1, i32 noundef %2) #0 {
  %4 = alloca i64, align 8
  %5 = alloca i64, align 8
  call void @llvm.lifetime.start.p0(i64 8, ptr nonnull %4) #14
  call void @llvm.lifetime.start.p0(i64 8, ptr nonnull %5) #14
  %6 = tail call i32 @PyGILState_Ensure() #14
  %7 = tail call ptr @PyState_FindModule(ptr noundef nonnull @readlinemodule) #14
  %8 = icmp eq ptr %7, null
  br i1 %8, label %9, label %10

9:                                                ; preds = %3
  tail call void @PyErr_Clear() #14
  br label %get_hook_module_state.exit

10:                                               ; preds = %3
  %11 = load i32, ptr %7, align 8, !tbaa !25
  %12 = icmp slt i32 %11, 0
  br i1 %12, label %Py_INCREF.exit.i, label %13

13:                                               ; preds = %10
  %14 = add nuw i32 %11, 1
  store i32 %14, ptr %7, align 8, !tbaa !25
  br label %Py_INCREF.exit.i

Py_INCREF.exit.i:                                 ; preds = %13, %10
  %15 = tail call ptr @PyModule_GetState(ptr noundef nonnull %7) #14
  %16 = load i32, ptr %7, align 8, !tbaa !25
  %.not.i.i = icmp sgt i32 %16, -1
  br i1 %.not.i.i, label %17, label %get_hook_module_state.exit

17:                                               ; preds = %Py_INCREF.exit.i
  %18 = add nsw i32 %16, -1
  store i32 %18, ptr %7, align 8, !tbaa !25
  %19 = icmp eq i32 %18, 0
  br i1 %19, label %20, label %get_hook_module_state.exit

20:                                               ; preds = %17
  tail call void @_Py_Dealloc(ptr noundef nonnull %7) #14
  br label %get_hook_module_state.exit

get_hook_module_state.exit:                       ; preds = %9, %Py_INCREF.exit.i, %17, %20
  %.0.i = phi ptr [ null, %9 ], [ %15, %Py_INCREF.exit.i ], [ %15, %17 ], [ %15, %20 ]
  store i32 0, ptr @rl_completion_append_character, align 4, !tbaa !17
  store i32 0, ptr @rl_completion_suppress_append, align 4, !tbaa !17
  %21 = load ptr, ptr @rl_line_buffer, align 8, !tbaa !3
  %22 = sext i32 %1 to i64
  %23 = getelementptr i8, ptr %21, i64 %22
  %24 = load i8, ptr %23, align 1, !tbaa !25
  store i8 0, ptr %23, align 1, !tbaa !25
  %25 = load ptr, ptr @rl_line_buffer, align 8, !tbaa !3
  %26 = call ptr @Py_DecodeLocale(ptr noundef %25, ptr noundef nonnull %4) #14
  %27 = load ptr, ptr @rl_line_buffer, align 8, !tbaa !3
  %28 = getelementptr i8, ptr %27, i64 %22
  store i8 %24, ptr %28, align 1, !tbaa !25
  %29 = icmp eq ptr %26, null
  br i1 %29, label %47, label %30

30:                                               ; preds = %get_hook_module_state.exit
  call void @PyMem_RawFree(ptr noundef nonnull %26) #14
  %31 = load ptr, ptr @rl_line_buffer, align 8, !tbaa !3
  %32 = sext i32 %2 to i64
  %33 = getelementptr i8, ptr %31, i64 %32
  %34 = load i8, ptr %33, align 1, !tbaa !25
  store i8 0, ptr %33, align 1, !tbaa !25
  %35 = load ptr, ptr @rl_line_buffer, align 8, !tbaa !3
  %36 = getelementptr i8, ptr %35, i64 %22
  %37 = call ptr @Py_DecodeLocale(ptr noundef %36, ptr noundef nonnull %5) #14
  %38 = load ptr, ptr @rl_line_buffer, align 8, !tbaa !3
  %39 = getelementptr i8, ptr %38, i64 %32
  store i8 %34, ptr %39, align 1, !tbaa !25
  %40 = icmp eq ptr %37, null
  br i1 %40, label %47, label %41

41:                                               ; preds = %30
  call void @PyMem_RawFree(ptr noundef nonnull %37) #14
  %42 = load i64, ptr %4, align 8, !tbaa !28
  %43 = trunc i64 %42 to i32
  %44 = load i64, ptr %5, align 8, !tbaa !28
  %45 = trunc i64 %44 to i32
  %46 = add i32 %45, %43
  br label %47

47:                                               ; preds = %30, %get_hook_module_state.exit, %41
  %.023 = phi i32 [ %2, %get_hook_module_state.exit ], [ %2, %30 ], [ %46, %41 ]
  %.0 = phi i32 [ %1, %get_hook_module_state.exit ], [ %1, %30 ], [ %43, %41 ]
  %.not = icmp eq ptr %.0.i, null
  br i1 %.not, label %69, label %48

48:                                               ; preds = %47
  %49 = getelementptr inbounds nuw i8, ptr %.0.i, i64 32
  %50 = load ptr, ptr %49, align 8, !tbaa !22
  %.not.i = icmp eq ptr %50, null
  br i1 %.not.i, label %Py_XDECREF.exit, label %51

51:                                               ; preds = %48
  %52 = load i32, ptr %50, align 8, !tbaa !25
  %.not.i.i27 = icmp sgt i32 %52, -1
  br i1 %.not.i.i27, label %53, label %Py_XDECREF.exit

53:                                               ; preds = %51
  %54 = add nsw i32 %52, -1
  store i32 %54, ptr %50, align 8, !tbaa !25
  %55 = icmp eq i32 %54, 0
  br i1 %55, label %56, label %Py_XDECREF.exit

56:                                               ; preds = %53
  call void @_Py_Dealloc(ptr noundef nonnull %50) #14
  br label %Py_XDECREF.exit

Py_XDECREF.exit:                                  ; preds = %48, %51, %53, %56
  %57 = getelementptr inbounds nuw i8, ptr %.0.i, i64 40
  %58 = load ptr, ptr %57, align 8, !tbaa !24
  %.not.i28 = icmp eq ptr %58, null
  br i1 %.not.i28, label %Py_XDECREF.exit30, label %59

59:                                               ; preds = %Py_XDECREF.exit
  %60 = load i32, ptr %58, align 8, !tbaa !25
  %.not.i.i29 = icmp sgt i32 %60, -1
  br i1 %.not.i.i29, label %61, label %Py_XDECREF.exit30

61:                                               ; preds = %59
  %62 = add nsw i32 %60, -1
  store i32 %62, ptr %58, align 8, !tbaa !25
  %63 = icmp eq i32 %62, 0
  br i1 %63, label %64, label %Py_XDECREF.exit30

64:                                               ; preds = %61
  call void @_Py_Dealloc(ptr noundef nonnull %58) #14
  br label %Py_XDECREF.exit30

Py_XDECREF.exit30:                                ; preds = %Py_XDECREF.exit, %59, %61, %64
  %65 = sext i32 %.0 to i64
  %66 = call ptr @PyLong_FromLong(i64 noundef %65) #14
  store ptr %66, ptr %49, align 8, !tbaa !22
  %67 = sext i32 %.023 to i64
  %68 = call ptr @PyLong_FromLong(i64 noundef %67) #14
  store ptr %68, ptr %57, align 8, !tbaa !24
  br label %69

69:                                               ; preds = %Py_XDECREF.exit30, %47
  %70 = call ptr @rl_completion_matches(ptr noundef %0, ptr noundef nonnull @on_completion) #14
  call void @PyGILState_Release(i32 noundef %6) #14
  call void @llvm.lifetime.end.p0(i64 8, ptr nonnull %5) #14
  call void @llvm.lifetime.end.p0(i64 8, ptr nonnull %4) #14
  ret ptr %70
}